; Function Attrs: mustprogress uwtable
define void @_ZNK6casadi9Transpose11eval_linearERKSt6vectorISt5arrayINS_2MXELm3EESaIS4_EERS6_(ptr nonnull readnone align 8 captures(none) %0, ptr noundef nonnull readonly align 8 captures(none) dereferenceable(24) %1, ptr noundef nonnull readonly align 8 captures(none) dereferenceable(24) %2) unnamed_addr #3 align 2 personality ptr @__gxx_personality_v0 {
  %4 = alloca %"class.casadi::MX", align 8
  br label %6

5:                                                ; preds = %_ZN6casadi2MXaSERKS0_.exit
  ret void

6:                                                ; preds = %3, %_ZN6casadi2MXaSERKS0_.exit
  %.07 = phi i64 [ 0, %3 ], [ %12, %_ZN6casadi2MXaSERKS0_.exit ]
  call void @llvm.lifetime.start.p0(i64 8, ptr nonnull %4) #21
  %7 = load ptr, ptr %1, align 8, !tbaa !78
  %8 = getelementptr inbounds nuw [3 x %"class.casadi::MX"], ptr %7, i64 0, i64 %.07
  call void @_ZNK6casadi2MX1TEv(ptr dead_on_unwind nonnull writable sret(%"class.casadi::MX") align 8 %4, ptr noundef nonnull align 8 dereferenceable(8) %8)
  %9 = load ptr, ptr %2, align 8, !tbaa !78
  %10 = getelementptr inbounds nuw [3 x %"class.casadi::MX"], ptr %9, i64 0, i64 %.07
  %11 = invoke noundef nonnull align 8 dereferenceable(8) ptr @_ZN6casadi13GenericSharedINS_12SharedObjectENS_20SharedObjectInternalEEaSERKS3_(ptr noundef nonnull align 8 dereferenceable(8) %10, ptr noundef nonnull align 8 dereferenceable(8) %4)
          to label %_ZN6casadi2MXaSERKS0_.exit unwind label %13

_ZN6casadi2MXaSERKS0_.exit:                       ; preds = %6
  call void @_ZN6casadi2MXD1Ev(ptr noundef nonnull align 8 dereferenceable(8) %4) #21
  call void @llvm.lifetime.end.p0(i64 8, ptr nonnull %4) #21
  %12 = add nuw nsw i64 %.07, 1
  %exitcond.not = icmp eq i64 %12, 3
  br i1 %exitcond.not, label %5, label %6, !llvm.loop !81

13:                                               ; preds = %6
  %14 = landingpad { ptr, i32 }
          cleanup
  call void @_ZN6casadi2MXD1Ev(ptr noundef nonnull align 8 dereferenceable(8) %4) #21
  call void @llvm.lifetime.end.p0(i64 8, ptr nonnull %4) #21
  resume { ptr, i32 } %14
}